target datalayout = "e-m:e-p270:32:32-p271:32:32-p272:64:64-i64:64-i128:128-f80:128-n8:16:32:64-S128"
target triple = "x86_64-pc-linux-gnu"

%struct.expert_field = type { i32, i32 }
%struct._dcerpc_info = type { ptr, i32, i64, i8, i32, i32, i32, i32, i32, i32, i32, i32, i32, i32, ptr, ptr, ptr }
%struct.BUFFER = type { ptr, ptr, ptr }

@hf_buffer_size = internal global i32 0, align 4
@hf_buffer_data = internal global i32 0, align 4
@ett_BUFFER = internal global i32 0, align 4
@ei_buffer_size_too_long = internal global %struct.expert_field zeroinitializer, align 4
@.str.1207 = private unnamed_addr constant [15 x i8] c"SPOOLSS buffer\00", align 1

; Function Attrs: nounwind uwtable
define internal i32 @dissect_spoolss_buffer_data(ptr noundef %0, i32 noundef %1, ptr noundef %2, ptr noundef %3, ptr noundef %4, ptr noundef %5) #0 {
  %7 = alloca i32, align 4
  %8 = alloca ptr, align 8
  %9 = alloca i32, align 4
  %10 = alloca ptr, align 8
  %11 = alloca ptr, align 8
  %12 = alloca ptr, align 8
  %13 = alloca ptr, align 8
  %14 = alloca ptr, align 8
  %15 = alloca ptr, align 8
  %16 = alloca i32, align 4
  %17 = alloca ptr, align 8
  store ptr %0, ptr %8, align 8
  store i32 %1, ptr %9, align 4
  store ptr %2, ptr %10, align 8
  store ptr %3, ptr %11, align 8
  store ptr %4, ptr %12, align 8
  store ptr %5, ptr %13, align 8
  %18 = load ptr, ptr %12, align 8
  %19 = getelementptr inbounds %struct._dcerpc_info, ptr %18, i32 0, i32 16
  %20 = load ptr, ptr %19, align 8
  store ptr %20, ptr %14, align 8
  %21 = load ptr, ptr %12, align 8
  %22 = getelementptr inbounds %struct._dcerpc_info, ptr %21, i32 0, i32 4
  %23 = load i32, ptr %22, align 4
  %24 = icmp ne i32 %23, 0
  br i1 %24, label %25, label %27

25:                                               ; preds = %6
  %26 = load i32, ptr %9, align 4
  store i32 %26, ptr %7, align 4
  br label %87

27:                                               ; preds = %6
  %28 = load ptr, ptr %8, align 8
  %29 = load i32, ptr %9, align 4
  %30 = load ptr, ptr %10, align 8
  %31 = load ptr, ptr %11, align 8
  %32 = load ptr, ptr %12, align 8
  %33 = load ptr, ptr %13, align 8
  %34 = load i32, ptr @hf_buffer_size, align 4
  %35 = call i32 @dissect_ndr_uint32(ptr noundef %28, i32 noundef %29, ptr noundef %30, ptr noundef %31, ptr noundef %32, ptr noundef %33, i32 noundef %34, ptr noundef %16)
  store i32 %35, ptr %9, align 4
  %36 = load ptr, ptr %8, align 8
  %37 = load i32, ptr %9, align 4
  %38 = call i32 @tvb_reported_length_remaining(ptr noundef %36, i32 noundef %37)
  %39 = load i32, ptr %16, align 4
  %40 = icmp ult i32 %38, %39
  br i1 %40, label %41, label %46

41:                                               ; preds = %27
  %42 = load ptr, ptr %10, align 8
  %43 = load ptr, ptr %11, align 8
  %44 = call ptr @expert_add_info(ptr noundef %42, ptr noundef %43, ptr noundef @ei_buffer_size_too_long)
  %45 = load i32, ptr %9, align 4
  store i32 %45, ptr %7, align 4
  br label %87

46:                                               ; preds = %27
  %47 = load ptr, ptr %8, align 8
  %48 = load i32, ptr %9, align 4
  %49 = load ptr, ptr %10, align 8
  %50 = load ptr, ptr %12, align 8
  %51 = load ptr, ptr %13, align 8
  %52 = load i32, ptr @hf_buffer_data, align 4
  %53 = load i32, ptr %16, align 4
  %54 = call i32 @dissect_ndr_uint8s(ptr noundef %47, i32 noundef %48, ptr noundef %49, ptr noundef null, ptr noundef %50, ptr noundef %51, i32 noundef %52, i32 noundef %53, ptr noundef %17)
  store i32 %54, ptr %9, align 4
  %55 = load ptr, ptr %11, align 8
  %56 = load i32, ptr @hf_buffer_data, align 4
  %57 = load ptr, ptr %8, align 8
  %58 = load i32, ptr %9, align 4
  %59 = load i32, ptr %16, align 4
  %60 = sub i32 %58, %59
  %61 = load i32, ptr %16, align 4
  %62 = call ptr @proto_tree_add_item(ptr noundef %55, i32 noundef %56, ptr noundef %57, i32 noundef %60, i32 noundef %61, i32 noundef 0)
  store ptr %62, ptr %15, align 8
  %63 = load ptr, ptr %14, align 8
  %64 = icmp ne ptr %63, null
  br i1 %64, label %65, label %85

65:                                               ; preds = %46
  %66 = load ptr, ptr %8, align 8
  %67 = load ptr, ptr %17, align 8
  %68 = load i32, ptr %16, align 4
  %69 = load i32, ptr %16, align 4
  %70 = call ptr @tvb_new_child_real_data(ptr noundef %66, ptr noundef %67, i32 noundef %68, i32 noundef %69)
  %71 = load ptr, ptr %14, align 8
  %72 = getelementptr inbounds %struct.BUFFER, ptr %71, i32 0, i32 0
  store ptr %70, ptr %72, align 8
  %73 = load ptr, ptr %10, align 8
  %74 = load ptr, ptr %14, align 8
  %75 = getelementptr inbounds %struct.BUFFER, ptr %74, i32 0, i32 0
  %76 = load ptr, ptr %75, align 8
  call void @add_new_data_source(ptr noundef %73, ptr noundef %76, ptr noundef @.str.1207)
  %77 = load ptr, ptr %15, align 8
  %78 = load ptr, ptr %14, align 8
  %79 = getelementptr inbounds %struct.BUFFER, ptr %78, i32 0, i32 2
  store ptr %77, ptr %79, align 8
  %80 = load ptr, ptr %15, align 8
  %81 = load i32, ptr @ett_BUFFER, align 4
  %82 = call ptr @proto_item_add_subtree(ptr noundef %80, i32 noundef %81)
  %83 = load ptr, ptr %14, align 8
  %84 = getelementptr inbounds %struct.BUFFER, ptr %83, i32 0, i32 1
  store ptr %82, ptr %84, align 8
  br label %85

85:                                               ; preds = %65, %46
  %86 = load i32, ptr %9, align 4
  store i32 %86, ptr %7, align 4
  br label %87

87:                                               ; preds = %85, %41, %25
  %88 = load i32, ptr %7, align 4
  ret i32 %88
}