; Function Attrs: nounwind uwtable
define internal i32 @dissect_spoolss_buffer_data(ptr noundef %0, i32 noundef %1, ptr noundef %2, ptr noundef %3, ptr noundef %4, ptr noundef %5) #0 {
  %7 = alloca i32, align 4
  %8 = alloca ptr, align 8
  %9 = getelementptr inbounds nuw i8, ptr %4, i64 88
  %10 = load ptr, ptr %9, align 8
  %11 = getelementptr inbounds nuw i8, ptr %4, i64 28
  %12 = load i32, ptr %11, align 4
  %.not = icmp eq i32 %12, 0
  br i1 %.not, label %13, label %36

13:                                               ; preds = %6
  %14 = load i32, ptr @hf_buffer_size, align 4
  %15 = call i32 @dissect_ndr_uint32(ptr noundef %0, i32 noundef %1, ptr noundef %2, ptr noundef %3, ptr noundef nonnull %4, ptr noundef %5, i32 noundef %14, ptr noundef nonnull %7) #5
  %16 = call i32 @tvb_reported_length_remaining(ptr noundef %0, i32 noundef %15) #5
  %17 = load i32, ptr %7, align 4
  %18 = icmp ult i32 %16, %17
  br i1 %18, label %19, label %21

19:                                               ; preds = %13
  %20 = call ptr @expert_add_info(ptr noundef %2, ptr noundef %3, ptr noundef nonnull @ei_buffer_size_too_long) #5
  br label %36

21:                                               ; preds = %13
  %22 = load i32, ptr @hf_buffer_data, align 4
  %23 = call i32 @dissect_ndr_uint8s(ptr noundef %0, i32 noundef %15, ptr noundef %2, ptr noundef null, ptr noundef nonnull %4, ptr noundef %5, i32 noundef %22, i32 noundef %17, ptr noundef nonnull %8) #5
  %24 = load i32, ptr @hf_buffer_data, align 4
  %25 = load i32, ptr %7, align 4
  %26 = sub i32 %23, %25
  %27 = call ptr @proto_tree_add_item(ptr noundef %3, i32 noundef %24, ptr noundef %0, i32 noundef %26, i32 noundef %25, i32 noundef 0) #5
  %.not34 = icmp eq ptr %10, null
  br i1 %.not34, label %36, label %28

28:                                               ; preds = %21
  %29 = load ptr, ptr %8, align 8
  %30 = load i32, ptr %7, align 4
  %31 = call ptr @tvb_new_child_real_data(ptr noundef %0, ptr noundef %29, i32 noundef %30, i32 noundef %30) #5
  store ptr %31, ptr %10, align 8
  call void @add_new_data_source(ptr noundef %2, ptr noundef %31, ptr noundef nonnull @.str.1207) #5
  %32 = getelementptr inbounds nuw i8, ptr %10, i64 16
  store ptr %27, ptr %32, align 8
  %33 = load i32, ptr @ett_BUFFER, align 4
  %34 = call ptr @proto_item_add_subtree(ptr noundef %27, i32 noundef %33) #5
  %35 = getelementptr inbounds nuw i8, ptr %10, i64 8
  store ptr %34, ptr %35, align 8
  br label %36

36:                                               ; preds = %21, %28, %6, %19
  %.0 = phi i32 [ %15, %19 ], [ %1, %6 ], [ %23, %28 ], [ %23, %21 ]
  ret i32 %.0
}